; Function Attrs: nounwind uwtable
define ptr @l_Lake_instMonadLiftTExceptTOfMonadOfMonadExceptOf__lake___rarg(ptr noundef %0, ptr noundef %1, ptr noundef %2, ptr readnone captures(none) %3, ptr noundef %4) #0 {
  %6 = getelementptr inbounds nuw i8, ptr %0, i64 16
  %7 = load ptr, ptr %6, align 8, !tbaa !4
  %8 = ptrtoint ptr %7 to i64
  %9 = and i64 %8, 1
  %.not = icmp eq i64 %9, 0
  br i1 %.not, label %10, label %lean_inc.exit

10:                                               ; preds = %5
  %.val.i = load i32, ptr %7, align 4, !tbaa !8
  %11 = icmp sgt i32 %.val.i, 0
  br i1 %11, label %12, label %14, !prof !11

12:                                               ; preds = %10
  %13 = add nuw i32 %.val.i, 1
  store i32 %13, ptr %7, align 4, !tbaa !8
  br label %lean_inc.exit

14:                                               ; preds = %10
  %.not.i = icmp eq i32 %.val.i, 0
  br i1 %.not.i, label %lean_inc.exit, label %15

15:                                               ; preds = %14
  tail call void @lean_inc_ref_cold(ptr noundef nonnull %7) #3
  br label %lean_inc.exit

lean_inc.exit:                                    ; preds = %15, %14, %12, %5
  %16 = tail call ptr @lean_apply_2(ptr noundef %2, ptr noundef nonnull inttoptr (i64 1 to ptr), ptr noundef %4) #3
  tail call void @lean_inc_heartbeat() #3
  %17 = tail call noalias ptr @mi_malloc_small(i64 noundef 48) #3
  %18 = icmp eq ptr %17, null
  br i1 %18, label %19, label %lean_alloc_closure.exit

19:                                               ; preds = %lean_inc.exit
  tail call void @lean_internal_panic_out_of_memory() #4
  unreachable

lean_alloc_closure.exit:                          ; preds = %lean_inc.exit
  %20 = getelementptr inbounds nuw i8, ptr %17, i64 4
  store i32 1, ptr %17, align 4, !tbaa !8
  store i32 -184549328, ptr %20, align 4
  %21 = getelementptr inbounds nuw i8, ptr %17, i64 8
  store ptr @l_liftM___at_Lake_instMonadLiftTExceptTOfMonadOfMonadExceptOf__lake___spec__1___rarg, ptr %21, align 8, !tbaa !4
  %22 = getelementptr inbounds nuw i8, ptr %17, i64 16
  store i16 4, ptr %22, align 8, !tbaa !12
  %23 = getelementptr inbounds nuw i8, ptr %17, i64 18
  store i16 3, ptr %23, align 2, !tbaa !12
  %24 = getelementptr inbounds nuw i8, ptr %17, i64 24
  store ptr %0, ptr %24, align 8, !tbaa !4
  %25 = getelementptr inbounds nuw i8, ptr %17, i64 32
  store ptr %1, ptr %25, align 8, !tbaa !4
  %26 = getelementptr inbounds nuw i8, ptr %17, i64 40
  store ptr inttoptr (i64 1 to ptr), ptr %26, align 8, !tbaa !4
  %27 = tail call ptr @lean_apply_4(ptr noundef %7, ptr noundef nonnull inttoptr (i64 1 to ptr), ptr noundef nonnull inttoptr (i64 1 to ptr), ptr noundef %16, ptr noundef nonnull %17) #3
  ret ptr %27
}